target datalayout = "e-m:e-p270:32:32-p271:32:32-p272:64:64-i64:64-i128:128-f80:128-n8:16:32:64-S128"
target triple = "x86_64-pc-linux-gnu"

%"struct.boost::charconv::from_chars_result_t" = type { ptr, i32 }

; Function Attrs: mustprogress nounwind uwtable
define linkonce_odr hidden noundef zeroext i1 @_ZNK5boost8charconv19from_chars_result_tIcEcvbEv(ptr noundef nonnull align 8 dereferenceable(16) %0) #0 comdat align 2 {
  %2 = alloca ptr, align 8
  store ptr %0, ptr %2, align 8, !tbaa !3
  %3 = load ptr, ptr %2, align 8
  %4 = getelementptr inbounds nuw %"struct.boost::charconv::from_chars_result_t", ptr %3, i32 0, i32 1
  %5 = load i32, ptr %4, align 8, !tbaa !13
  %6 = icmp eq i32 %5, 0
  ret i1 %6
}

; Function Attrs: mustprogress nounwind uwtable
define internal { ptr, i32 } @_ZN12_GLOBAL__N_122from_chars_strict_implIeEEN5boost8charconv19from_chars_result_tIcEEPKcS6_RT_NS2_12chars_formatE(ptr noundef %0, ptr noundef %1, ptr noundef nonnull align 16 dereferenceable(16) %2, i32 noundef %3) #0 {
  %5 = alloca %"struct.boost::charconv::from_chars_result_t", align 8
  %6 = alloca ptr, align 8
  %7 = alloca ptr, align 8
  %8 = alloca ptr, align 8
  %9 = alloca i32, align 4
  %10 = alloca x86_fp80, align 16
  store ptr %0, ptr %6, align 8, !tbaa !3
  store ptr %1, ptr %7, align 8, !tbaa !3
  store ptr %2, ptr %8, align 8, !tbaa !3
  store i32 %3, ptr %9, align 4, !tbaa !7
  call void @llvm.lifetime.start.p0(i64 16, ptr %10) #14
  store x86_fp80 0xK00000000000000000000, ptr %10, align 16, !tbaa !27
  %11 = load ptr, ptr %6, align 8, !tbaa !3
  %12 = load ptr, ptr %7, align 8, !tbaa !3
  %13 = load i32, ptr %9, align 4, !tbaa !7
  %14 = call { ptr, i32 } @_ZN5boost8charconv17from_chars_erangeEPKcS2_ReNS0_12chars_formatE(ptr noundef %11, ptr noundef %12, ptr noundef nonnull align 16 dereferenceable(16) %10, i32 noundef %13) #14
  %15 = getelementptr inbounds nuw { ptr, i32 }, ptr %5, i32 0, i32 0
  %16 = extractvalue { ptr, i32 } %14, 0
  store ptr %16, ptr %15, align 8
  %17 = getelementptr inbounds nuw { ptr, i32 }, ptr %5, i32 0, i32 1
  %18 = extractvalue { ptr, i32 } %14, 1
  store i32 %18, ptr %17, align 8
  %19 = call noundef zeroext i1 @_ZNK5boost8charconv19from_chars_result_tIcEcvbEv(ptr noundef nonnull align 8 dereferenceable(16) %5) #14
  br i1 %19, label %20, label %23

20:                                               ; preds = %4
  %21 = load x86_fp80, ptr %10, align 16, !tbaa !27
  %22 = load ptr, ptr %8, align 8, !tbaa !3
  store x86_fp80 %21, ptr %22, align 16, !tbaa !27
  br label %23

23:                                               ; preds = %20, %4
  call void @llvm.lifetime.end.p0(i64 16, ptr %10) #14
  %24 = load { ptr, i32 }, ptr %5, align 8
  ret { ptr, i32 } %24
}

; Function Attrs: mustprogress nounwind uwtable
define { ptr, i32 } @_ZN5boost8charconv10from_charsEPKcS2_ReNS0_12chars_formatE(ptr noundef %0, ptr noundef %1, ptr noundef nonnull align 16 dereferenceable(16) %2, i32 noundef %3) #0 {
  %5 = alloca %"struct.boost::charconv::from_chars_result_t", align 8
  %6 = alloca ptr, align 8
  %7 = alloca ptr, align 8
  %8 = alloca ptr, align 8
  %9 = alloca i32, align 4
  store ptr %0, ptr %6, align 8, !tbaa !3
  store ptr %1, ptr %7, align 8, !tbaa !3
  store ptr %2, ptr %8, align 8, !tbaa !3
  store i32 %3, ptr %9, align 4, !tbaa !7
  %10 = load ptr, ptr %6, align 8, !tbaa !3
  %11 = load ptr, ptr %7, align 8, !tbaa !3
  %12 = load ptr, ptr %8, align 8, !tbaa !3
  %13 = load i32, ptr %9, align 4, !tbaa !7
  %14 = call { ptr, i32 } @_ZN12_GLOBAL__N_122from_chars_strict_implIeEEN5boost8charconv19from_chars_result_tIcEEPKcS6_RT_NS2_12chars_formatE(ptr noundef %10, ptr noundef %11, ptr noundef nonnull align 16 dereferenceable(16) %12, i32 noundef %13) #14
  %15 = getelementptr inbounds nuw { ptr, i32 }, ptr %5, i32 0, i32 0
  %16 = extractvalue { ptr, i32 } %14, 0
  store ptr %16, ptr %15, align 8
  %17 = getelementptr inbounds nuw { ptr, i32 }, ptr %5, i32 0, i32 1
  %18 = extractvalue { ptr, i32 } %14, 1
  store i32 %18, ptr %17, align 8
  %19 = load { ptr, i32 }, ptr %5, align 8
  ret { ptr, i32 } %19
}