; Function Attrs: mustprogress nounwind uwtable
define { ptr, i32 } @_ZN5boost8charconv10from_charsEPKcS2_ReNS0_12chars_formatE(ptr noundef %0, ptr noundef %1, ptr nocapture noundef nonnull writeonly align 16 dereferenceable(16) %2, i32 noundef %3) local_unnamed_addr #0 {
  %5 = alloca x86_fp80, align 16
  call void @llvm.lifetime.start.p0(i64 16, ptr nonnull %5) #13
  store x86_fp80 0xK00000000000000000000, ptr %5, align 16, !tbaa !17
  %6 = call { ptr, i32 } @_ZN5boost8charconv17from_chars_erangeEPKcS2_ReNS0_12chars_formatE(ptr noundef %0, ptr noundef %1, ptr noundef nonnull align 16 dereferenceable(16) %5, i32 noundef %3) #13
  %7 = extractvalue { ptr, i32 } %6, 1
  %8 = icmp eq i32 %7, 0
  br i1 %8, label %9, label %_ZN12_GLOBAL__N_122from_chars_strict_implIeEEN5boost8charconv19from_chars_result_tIcEEPKcS6_RT_NS2_12chars_formatE.exit

9:                                                ; preds = %4
  %10 = load x86_fp80, ptr %5, align 16, !tbaa !17
  store x86_fp80 %10, ptr %2, align 16, !tbaa !17
  br label %_ZN12_GLOBAL__N_122from_chars_strict_implIeEEN5boost8charconv19from_chars_result_tIcEEPKcS6_RT_NS2_12chars_formatE.exit

_ZN12_GLOBAL__N_122from_chars_strict_implIeEEN5boost8charconv19from_chars_result_tIcEEPKcS6_RT_NS2_12chars_formatE.exit: ; preds = %4, %9
  call void @llvm.lifetime.end.p0(i64 16, ptr nonnull %5) #13
  ret { ptr, i32 } %6
}